; Function Attrs: mustprogress nofree norecurse nosync nounwind willreturn memory(argmem: read) uwtable
define noundef double @_ZNK11TransTableS11MemoryInUseEv(ptr nocapture noundef nonnull readonly align 8 dereferenceable(2396) %0) unnamed_addr #15 align 2 {
  %2 = getelementptr inbounds nuw i8, ptr %0, i64 368
  %3 = load i64, ptr %2, align 8
  %4 = trunc i64 %3 to i32
  %5 = add nsw i32 %4, 262144
  %6 = sitofp i32 %5 to double
  %7 = fmul double %6, 0x3F50000000000000
  ret double %7
}